target datalayout = "e-m:e-p270:32:32-p271:32:32-p272:64:64-i64:64-i128:128-f80:128-n8:16:32:64-S128"
target triple = "x86_64-pc-linux-gnu"

%struct._lv_obj_t = type { ptr, ptr, ptr, ptr, ptr, %struct.lv_area_t, i32, i16, i16 }
%struct.lv_area_t = type { i32, i32, i32, i32 }
%struct._lv_obj_spec_attr_t = type { ptr, ptr, %struct.lv_event_list_t, %struct.lv_point_t, i32, i32, i16, i16 }
%struct.lv_event_list_t = type { %struct._lv_array_t, i8 }
%struct._lv_array_t = type { ptr, i32, i32, i32, i8 }
%struct.lv_point_t = type { i32, i32 }

; Function Attrs: nounwind uwtable
define void @lv_obj_set_scrollbar_mode(ptr noundef %0, i32 noundef %1) #0 {
  %3 = alloca ptr, align 8
  %4 = alloca i32, align 4
  store ptr %0, ptr %3, align 8, !tbaa !3
  store i32 %1, ptr %4, align 4, !tbaa !7
  br label %5

5:                                                ; preds = %2
  br label %6

6:                                                ; preds = %5
  %7 = load ptr, ptr %3, align 8, !tbaa !3
  call void @lv_obj_allocate_spec_attr(ptr noundef %7)
  %8 = load ptr, ptr %3, align 8, !tbaa !3
  %9 = getelementptr inbounds nuw %struct._lv_obj_t, ptr %8, i32 0, i32 2
  %10 = load ptr, ptr %9, align 8, !tbaa !9
  %11 = getelementptr inbounds nuw %struct._lv_obj_spec_attr_t, ptr %10, i32 0, i32 7
  %12 = load i16, ptr %11, align 2
  %13 = and i16 %12, 3
  %14 = zext i16 %13 to i32
  %15 = load i32, ptr %4, align 4, !tbaa !7
  %16 = icmp eq i32 %14, %15
  br i1 %16, label %17, label %18

17:                                               ; preds = %6
  br label %30

18:                                               ; preds = %6
  %19 = load i32, ptr %4, align 4, !tbaa !7
  %20 = trunc i32 %19 to i16
  %21 = load ptr, ptr %3, align 8, !tbaa !3
  %22 = getelementptr inbounds nuw %struct._lv_obj_t, ptr %21, i32 0, i32 2
  %23 = load ptr, ptr %22, align 8, !tbaa !9
  %24 = getelementptr inbounds nuw %struct._lv_obj_spec_attr_t, ptr %23, i32 0, i32 7
  %25 = load i16, ptr %24, align 2
  %26 = and i16 %20, 3
  %27 = and i16 %25, -4
  %28 = or i16 %27, %26
  store i16 %28, ptr %24, align 2
  %29 = load ptr, ptr %3, align 8, !tbaa !3
  call void @lv_obj_invalidate(ptr noundef %29)
  br label %30

30:                                               ; preds = %18, %17
  ret void
}