; Function Attrs: nounwind uwtable
define void @lv_obj_set_scrollbar_mode(ptr noundef %0, i32 noundef %1) local_unnamed_addr #0 {
  tail call void @lv_obj_allocate_spec_attr(ptr noundef %0) #5
  %3 = getelementptr inbounds nuw i8, ptr %0, i64 16
  %4 = load ptr, ptr %3, align 8, !tbaa !3
  %5 = getelementptr inbounds nuw i8, ptr %4, i64 66
  %6 = load i16, ptr %5, align 2
  %7 = and i16 %6, 3
  %8 = zext nneg i16 %7 to i32
  %9 = icmp eq i32 %1, %8
  br i1 %9, label %15, label %10

10:                                               ; preds = %2
  %11 = trunc i32 %1 to i16
  %12 = and i16 %11, 3
  %13 = and i16 %6, -4
  %14 = or disjoint i16 %13, %12
  store i16 %14, ptr %5, align 2
  tail call void @lv_obj_invalidate(ptr noundef nonnull %0) #5
  br label %15

15:                                               ; preds = %2, %10
  ret void
}